	.syntax unified
	.cpu cortex-m3
	.fpu softvfp
	.eabi_attribute 20, 1
	.eabi_attribute 21, 1
	.eabi_attribute 23, 3
	.eabi_attribute 24, 1
	.eabi_attribute 25, 1
	.eabi_attribute 26, 1
	.eabi_attribute 30, 6
	.eabi_attribute 34, 1
	.eabi_attribute 18, 4
	.thumb
	.file	"startup.c"
	.text
.Ltext0:
	.cfi_sections	.debug_frame
	.align	2
	.global	Rest_Handler
	.thumb
	.thumb_func
	.type	Rest_Handler, %function
Rest_Handler:
.LFB0:
	.file 1 "startup.c"
	.loc 1 18 0
	.cfi_startproc
	@ args = 0, pretend = 0, frame = 24
	@ frame_needed = 1, uses_anonymous_args = 0
	push	{r7, lr}
.LCFI0:
	.cfi_def_cfa_offset 8
	.cfi_offset 7, -8
	.cfi_offset 14, -4
	sub	sp, sp, #24
.LCFI1:
	.cfi_def_cfa_offset 32
	add	r7, sp, #0
.LCFI2:
	.cfi_def_cfa_register 7
	.loc 1 19 0
	movw	r2, #:lower16:_E_DATA
	movt	r2, #:upper16:_E_DATA
	movw	r3, #:lower16:_S_DATA
	movt	r3, #:upper16:_S_DATA
	subs	r3, r2, r3
	str	r3, [r7, #8]
	.loc 1 20 0
	movw	r3, #:lower16:_E_TEXT
	movt	r3, #:upper16:_E_TEXT
	str	r3, [r7, #20]
	.loc 1 21 0
	movw	r3, #:lower16:_S_DATA
	movt	r3, #:upper16:_S_DATA
	str	r3, [r7, #16]
	.loc 1 23 0
	mov	r3, #0
	str	r3, [r7, #12]
	b	.L2
.L3:
	.loc 1 25 0 discriminator 2
	ldr	r3, [r7, #20]
	ldrb	r2, [r3, #0]	@ zero_extendqisi2
	ldr	r3, [r7, #16]
	strb	r2, [r3, #0]
	ldr	r3, [r7, #16]
	add	r3, r3, #1
	str	r3, [r7, #16]
	ldr	r3, [r7, #20]
	add	r3, r3, #1
	str	r3, [r7, #20]
	.loc 1 23 0 discriminator 2
	ldr	r3, [r7, #12]
	add	r3, r3, #1
	str	r3, [r7, #12]
.L2:
	.loc 1 23 0 is_stmt 0 discriminator 1
	ldr	r2, [r7, #12]
	ldr	r3, [r7, #8]
	cmp	r2, r3
	bcc	.L3
	.loc 1 28 0 is_stmt 1
	movw	r2, #:lower16:_E_BSS
	movt	r2, #:upper16:_E_BSS
	movw	r3, #:lower16:_S_BSS
	movt	r3, #:upper16:_S_BSS
	subs	r3, r2, r3
	str	r3, [r7, #4]
	.loc 1 29 0
	movw	r3, #:lower16:_S_BSS
	movt	r3, #:upper16:_S_BSS
	str	r3, [r7, #16]
	.loc 1 30 0
	mov	r3, #0
	str	r3, [r7, #12]
	b	.L4
.L5:
	.loc 1 32 0 discriminator 2
	mov	r3, #0
	ldrb	r2, [r3, #0]	@ zero_extendqisi2
	ldr	r3, [r7, #16]
	strb	r2, [r3, #0]
	ldr	r3, [r7, #16]
	add	r3, r3, #1
	str	r3, [r7, #16]
	.loc 1 30 0 discriminator 2
	ldr	r3, [r7, #12]
	add	r3, r3, #1
	str	r3, [r7, #12]
.L4:
	.loc 1 30 0 is_stmt 0 discriminator 1
	ldr	r2, [r7, #12]
	ldr	r3, [r7, #4]
	cmp	r2, r3
	bcc	.L5
	.loc 1 36 0 is_stmt 1
	bl	main
	.loc 1 37 0
	add	r7, r7, #24
	mov	sp, r7
	pop	{r7, pc}
	.cfi_endproc
.LFE0:
	.size	Rest_Handler, .-Rest_Handler
	.align	2
	.global	Default_Handler
	.thumb
	.thumb_func
	.type	Default_Handler, %function
Default_Handler:
.LFB1:
	.loc 1 38 0
	.cfi_startproc
	@ args = 0, pretend = 0, frame = 0
	@ frame_needed = 1, uses_anonymous_args = 0
	push	{r7, lr}
.LCFI3:
	.cfi_def_cfa_offset 8
	.cfi_offset 7, -8
	.cfi_offset 14, -4
	add	r7, sp, #0
.LCFI4:
	.cfi_def_cfa_register 7
	.loc 1 39 0
	bl	Rest_Handler
	.loc 1 40 0
	pop	{r7, pc}
	.cfi_endproc
.LFE1:
	.size	Default_Handler, .-Default_Handler
	.weak	H_Fault_Handler
	.thumb_set H_Fault_Handler,Default_Handler
	.weak	MM_Fault_Handler
	.thumb_set MM_Fault_Handler,Default_Handler
	.weak	Bus_Fault_Handler
	.thumb_set Bus_Fault_Handler,Default_Handler
	.weak	Usage_Fault_Handler
	.thumb_set Usage_Fault_Handler,Default_Handler
	.weak	NMI_Handler
	.thumb_set NMI_Handler,Default_Handler
	.global	vectors
	.section	.vectors,"aw",%progbits
	.align	2
	.type	vectors, %object
	.size	vectors, 28
vectors:
	.word	_stack_top
	.word	Rest_Handler
	.word	NMI_Handler
	.word	H_Fault_Handler
	.word	MM_Fault_Handler
	.word	Bus_Fault_Handler
	.word	Usage_Fault_Handler
	.text
.Letext0:
	.file 2 "platform_types.h"